; Function Attrs: nounwind uwtable
define internal range(i32 -11, 1) i32 @FN_Sorted_Next_Field(ptr noundef %0) #0 {
  %2 = getelementptr inbounds nuw i8, ptr %0, i64 72
  %3 = load ptr, ptr %2, align 8, !tbaa !14
  br label %4

4:                                                ; preds = %4, %1
  %.0.i = phi ptr [ %3, %1 ], [ %6, %4 ]
  %5 = getelementptr inbounds nuw i8, ptr %.0.i, i64 56
  %6 = load ptr, ptr %5, align 8, !tbaa !87
  %7 = getelementptr inbounds nuw i8, ptr %6, i64 48
  %8 = load i32, ptr %7, align 8, !tbaa !19
  %9 = and i32 %8, 3
  %10 = icmp eq i32 %9, 3
  %.not.i = icmp eq ptr %6, %3
  %or.cond.i = or i1 %.not.i, %10
  br i1 %or.cond.i, label %Sorted_Next_Field.exit, label %4, !llvm.loop !110

Sorted_Next_Field.exit:                           ; preds = %4
  %11 = tail call i32 @_nc_Set_Current_Field(ptr noundef %0, ptr noundef nonnull %6)
  ret i32 %11
}